; Function Attrs: mustprogress nounwind uwtable
define dso_local void @_ZN4llvm3sys2fs8TempFileC2ENS_9StringRefEi(ptr noundef nonnull align 8 dereferenceable(44) %0, ptr %1, i64 %2, i32 noundef %3) unnamed_addr #0 align 2 {
  %5 = alloca %"struct.std::__cxx11::basic_string<char>::__sv_wrapper", align 8
  %6 = alloca %"class.std::allocator", align 1
  store i8 0, ptr %0, align 8
  %7 = getelementptr inbounds nuw i8, ptr %0, i64 8
  call void @_ZNSaIcEC1Ev(ptr noundef nonnull align 1 dereferenceable(1) %6) #30
  call void @llvm.lifetime.start.p0(i64 16, ptr nonnull %5)
  %8 = call { i64, ptr } @_ZNSt7__cxx1112basic_stringIcSt11char_traitsIcESaIcEE17_S_to_string_viewESt17basic_string_viewIcS2_E(i64 %2, ptr %1) #30
  %9 = extractvalue { i64, ptr } %8, 0
  %10 = extractvalue { i64, ptr } %8, 1
  call void @_ZNSt7__cxx1112basic_stringIcSt11char_traitsIcESaIcEE12__sv_wrapperC1ESt17basic_string_viewIcS2_E(ptr noundef nonnull align 8 dereferenceable(16) %5, i64 %9, ptr %10) #30
  %11 = load i64, ptr %5, align 8
  %12 = getelementptr inbounds nuw i8, ptr %5, i64 8
  %13 = load ptr, ptr %12, align 8
  call void @_ZNSt7__cxx1112basic_stringIcSt11char_traitsIcESaIcEEC2ENS4_12__sv_wrapperERKS3_(ptr noundef nonnull align 8 dereferenceable(32) %7, i64 %11, ptr %13, ptr noundef nonnull align 1 dereferenceable(1) %6) #30
  call void @llvm.lifetime.end.p0(i64 16, ptr nonnull %5)
  call void @_ZNSaIcED1Ev(ptr noundef nonnull align 1 dereferenceable(1) %6) #30
  %14 = getelementptr inbounds nuw i8, ptr %0, i64 40
  store i32 %3, ptr %14, align 8
  ret void
}